; Function Attrs: nounwind uwtable
define internal void @_WriteBuf(ptr noundef readonly captures(none) %0, ptr noundef %1, i64 noundef %2) #0 {
  %4 = getelementptr inbounds nuw i8, ptr %0, i64 592
  %5 = load ptr, ptr %4, align 8
  %6 = getelementptr inbounds nuw i8, ptr %5, i64 8
  %7 = load ptr, ptr %6, align 8
  %8 = tail call ptr @__errno_location() #16
  store i32 0, ptr %8, align 4
  %9 = getelementptr inbounds nuw i8, ptr %7, i64 24
  %10 = load ptr, ptr %9, align 8
  %11 = tail call zeroext i1 %10(ptr noundef %1, i64 noundef %2, ptr noundef %7) #14
  br i1 %11, label %20, label %12

12:                                               ; preds = %3
  %13 = load i32, ptr %8, align 4
  %14 = icmp eq i32 %13, 0
  br i1 %14, label %15, label %16

15:                                               ; preds = %12
  store i32 28, ptr %8, align 4
  br label %16

16:                                               ; preds = %12, %15
  %17 = getelementptr inbounds nuw i8, ptr %7, i64 64
  %18 = load ptr, ptr %17, align 8
  %19 = tail call ptr %18(ptr noundef nonnull %7) #14
  tail call void (i32, i32, ptr, ...) @pg_log_generic(i32 noundef 4, i32 noundef 0, ptr noundef nonnull @.str.17, ptr noundef %19) #14
  tail call void @exit_nicely(i32 noundef 1) #15
  unreachable

20:                                               ; preds = %3
  ret void
}